target datalayout = "e-m:e-p270:32:32-p271:32:32-p272:64:64-i64:64-i128:128-f80:128-n8:16:32:64-S128"
target triple = "x86_64-unknown-linux-gnu"

%struct.FLAC__StreamMetadata = type { i32, i32, i32, %union.anon }
%union.anon = type { %struct.FLAC__StreamMetadata_CueSheet }
%struct.FLAC__StreamMetadata_CueSheet = type { [129 x i8], i64, i32, i32, ptr }
%"class.FLAC::Metadata::Prototype" = type <{ ptr, ptr, i8, [7 x i8] }>
%struct.FLAC__StreamMetadata_CueSheet_Index = type { i64, i8 }
%struct.FLAC__StreamMetadata_CueSheet_Track = type { i64, i8, [13 x i8], i8, i8, ptr }

; Function Attrs: mustprogress nounwind sspstrong uwtable
define void @_ZN4FLAC8Metadata8CueSheet9set_indexEjjRK35FLAC__StreamMetadata_CueSheet_Index(ptr noundef nonnull align 8 dereferenceable(17) %this, i32 noundef %track_num, i32 noundef %index_num, ptr noundef nonnull align 8 dereferenceable(16) %indx) #5 align 2 {
entry:
  %this.addr = alloca ptr, align 8
  %track_num.addr = alloca i32, align 4
  %index_num.addr = alloca i32, align 4
  %indx.addr = alloca ptr, align 8
  store ptr %this, ptr %this.addr, align 8
  store i32 %track_num, ptr %track_num.addr, align 4
  store i32 %index_num, ptr %index_num.addr, align 4
  store ptr %indx, ptr %indx.addr, align 8
  %this1 = load ptr, ptr %this.addr, align 8
  %0 = load ptr, ptr %indx.addr, align 8
  %object_ = getelementptr inbounds %"class.FLAC::Metadata::Prototype", ptr %this1, i32 0, i32 1
  %1 = load ptr, ptr %object_, align 8
  %data = getelementptr inbounds %struct.FLAC__StreamMetadata, ptr %1, i32 0, i32 3
  %tracks = getelementptr inbounds %struct.FLAC__StreamMetadata_CueSheet, ptr %data, i32 0, i32 4
  %2 = load ptr, ptr %tracks, align 8
  %3 = load i32, ptr %track_num.addr, align 4
  %idxprom = zext i32 %3 to i64
  %arrayidx = getelementptr inbounds %struct.FLAC__StreamMetadata_CueSheet_Track, ptr %2, i64 %idxprom
  %indices = getelementptr inbounds %struct.FLAC__StreamMetadata_CueSheet_Track, ptr %arrayidx, i32 0, i32 5
  %4 = load ptr, ptr %indices, align 8
  %5 = load i32, ptr %index_num.addr, align 4
  %idxprom2 = zext i32 %5 to i64
  %arrayidx3 = getelementptr inbounds %struct.FLAC__StreamMetadata_CueSheet_Index, ptr %4, i64 %idxprom2
  call void @llvm.memcpy.p0.p0.i64(ptr align 8 %arrayidx3, ptr align 8 %0, i64 16, i1 false)
  ret void
}