; Function Attrs: mustprogress nofree norecurse nosync nounwind sspstrong willreturn memory(readwrite, inaccessiblemem: none) uwtable
define void @_ZN4FLAC8Metadata8CueSheet9set_indexEjjRK35FLAC__StreamMetadata_CueSheet_Index(ptr nocapture noundef nonnull readonly align 8 dereferenceable(17) %this, i32 noundef %track_num, i32 noundef %index_num, ptr nocapture noundef nonnull readonly align 8 dereferenceable(16) %indx) local_unnamed_addr #10 align 2 {
entry:
  %object_ = getelementptr inbounds i8, ptr %this, i64 8
  %0 = load ptr, ptr %object_, align 8
  %tracks = getelementptr inbounds i8, ptr %0, i64 168
  %1 = load ptr, ptr %tracks, align 8
  %idxprom = zext i32 %track_num to i64
  %indices = getelementptr inbounds %struct.FLAC__StreamMetadata_CueSheet_Track, ptr %1, i64 %idxprom, i32 5
  %2 = load ptr, ptr %indices, align 8
  %idxprom2 = zext i32 %index_num to i64
  %arrayidx3 = getelementptr inbounds %struct.FLAC__StreamMetadata_CueSheet_Index, ptr %2, i64 %idxprom2
  tail call void @llvm.memcpy.p0.p0.i64(ptr noundef nonnull align 8 dereferenceable(16) %arrayidx3, ptr noundef nonnull align 8 dereferenceable(16) %indx, i64 16, i1 false)
  ret void
}